"".main STEXT size=96 args=0x0 locals=0x38 funcid=0x0
	0x0000 00000 (typed_params.go:7)	TEXT	"".main(SB), ABIInternal, $64-0
	0x0000 00000 (typed_params.go:7)	MOVD	16(g), R16
	0x0004 00004 (typed_params.go:7)	PCDATA	$0, $-2
	0x0004 00004 (typed_params.go:7)	MOVD	RSP, R17
	0x0008 00008 (typed_params.go:7)	CMP	R16, R17
	0x000c 00012 (typed_params.go:7)	BLS	76
	0x0010 00016 (typed_params.go:7)	PCDATA	$0, $-1
	0x0010 00016 (typed_params.go:7)	MOVD.W	R30, -64(RSP)
	0x0014 00020 (typed_params.go:7)	MOVD	R29, -8(RSP)
	0x0018 00024 (typed_params.go:7)	SUB	$8, RSP, R29
	0x001c 00028 (typed_params.go:7)	FUNCDATA	ZR, gclocals·33cdeccccebe80329f1fdbee7f5874cb(SB)
	0x001c 00028 (typed_params.go:7)	FUNCDATA	$1, gclocals·33cdeccccebe80329f1fdbee7f5874cb(SB)
	0x001c 00028 (typed_params.go:10)	MOVD	$""..dict.Pp[main.Rock,main.Profe](SB), R0
	0x0024 00036 (typed_params.go:10)	MOVD	$""..autotmp_2(SP), R1
	0x0028 00040 (typed_params.go:10)	MOVD	$1, R2
	0x002c 00044 (typed_params.go:10)	MOVD	R2, R3
	0x0030 00048 (typed_params.go:10)	MOVD	$go.string."123321"(SB), R4
	0x0038 00056 (typed_params.go:10)	MOVD	$6, R5
	0x003c 00060 (typed_params.go:10)	PCDATA	$1, ZR
	0x003c 00060 (typed_params.go:10)	CALL	"".Pp[.shape.struct {},.shape.struct { Content string }](SB)
	0x0040 00064 (typed_params.go:11)	MOVD	-8(RSP), R29
	0x0044 00068 (typed_params.go:11)	MOVD.P	64(RSP), R30
	0x0048 00072 (typed_params.go:11)	RET	(R30)
	0x004c 00076 (typed_params.go:11)	NOP
	0x004c 00076 (typed_params.go:7)	PCDATA	$1, $-1
	0x004c 00076 (typed_params.go:7)	PCDATA	$0, $-2
	0x004c 00076 (typed_params.go:7)	MOVD	R30, R3
	0x0050 00080 (typed_params.go:7)	CALL	runtime.morestack_noctxt(SB)
	0x0054 00084 (typed_params.go:7)	PCDATA	$0, $-1
	0x0054 00084 (typed_params.go:7)	JMP	0
	0x0000 90 0b 40 f9 f1 03 00 91 3f 02 10 eb 09 02 00 54  ..@.....?......T
	0x0010 fe 0f 1c f8 fd 83 1f f8 fd 23 00 d1 00 00 00 90  .........#......
	0x0020 00 00 00 91 e1 e3 00 91 e2 03 40 b2 e3 03 02 aa  ..........@.....
	0x0030 04 00 00 90 84 00 00 91 e5 07 7f b2 00 00 00 94  ................
	0x0040 fd 83 5f f8 fe 07 44 f8 c0 03 5f d6 e3 03 1e aa  .._...D..._.....
	0x0050 00 00 00 94 eb ff ff 17 00 00 00 00 00 00 00 00  ................
	rel 28+8 t=3 ""..dict.Pp[main.Rock,main.Profe]+0
	rel 48+8 t=3 go.string."123321"+0
	rel 60+4 t=9 "".Pp[.shape.struct {},.shape.struct { Content string }]+0
	rel 80+4 t=9 runtime.morestack_noctxt+0
"".Rock.Puuuuu STEXT size=144 args=0x0 locals=0x48 funcid=0x0
	0x0000 00000 (typed_params.go:19)	TEXT	"".Rock.Puuuuu(SB), ABIInternal, $80-0
	0x0000 00000 (typed_params.go:19)	MOVD	16(g), R16
	0x0004 00004 (typed_params.go:19)	PCDATA	$0, $-2
	0x0004 00004 (typed_params.go:19)	MOVD	RSP, R17
	0x0008 00008 (typed_params.go:19)	CMP	R16, R17
	0x000c 00012 (typed_params.go:19)	BLS	120
	0x0010 00016 (typed_params.go:19)	PCDATA	$0, $-1
	0x0010 00016 (typed_params.go:19)	MOVD.W	R30, -80(RSP)
	0x0014 00020 (typed_params.go:19)	MOVD	R29, -8(RSP)
	0x0018 00024 (typed_params.go:19)	SUB	$8, RSP, R29
	0x001c 00028 (typed_params.go:19)	FUNCDATA	ZR, gclocals·33cdeccccebe80329f1fdbee7f5874cb(SB)
	0x001c 00028 (typed_params.go:19)	FUNCDATA	$1, gclocals·f207267fbf96a0178e8758c6e3e0ce28(SB)
	0x001c 00028 (typed_params.go:19)	FUNCDATA	$2, "".Rock.Puuuuu.stkobj(SB)
	0x001c 00028 (typed_params.go:19)	FUNCDATA	$5, "".Rock.Puuuuu.arginfo1(SB)
	0x001c 00028 (typed_params.go:20)	STP	(ZR, ZR), ""..autotmp_11-16(SP)
	0x0020 00032 (typed_params.go:20)	MOVD	$type.string(SB), R5
	0x0028 00040 (typed_params.go:20)	MOVD	R5, ""..autotmp_11-16(SP)
	0x002c 00044 (typed_params.go:20)	MOVD	$""..stmp_0(SB), R5
	0x0034 00052 (typed_params.go:20)	MOVD	R5, ""..autotmp_11-8(SP)
	0x0038 00056 (<unknown line number>)	NOP
	0x0038 00056 (<unknown line number>)	PCDATA	$0, $-3
	0x0038 00056 ($GOROOT/src/fmt/print.go:274)	MOVD	os.Stdout(SB), R1
	0x0044 00068 ($GOROOT/src/fmt/print.go:274)	PCDATA	$0, $-1
	0x0044 00068 ($GOROOT/src/fmt/print.go:274)	MOVD	$go.itab.*os.File,io.Writer(SB), R0
	0x004c 00076 ($GOROOT/src/fmt/print.go:274)	MOVD	$""..autotmp_11-16(SP), R2
	0x0050 00080 ($GOROOT/src/fmt/print.go:274)	MOVD	$1, R3
	0x0054 00084 ($GOROOT/src/fmt/print.go:274)	MOVD	R3, R4
	0x0058 00088 ($GOROOT/src/fmt/print.go:274)	PCDATA	$1, ZR
	0x0058 00088 ($GOROOT/src/fmt/print.go:274)	CALL	fmt.Fprintln(SB)
	0x005c 00092 (typed_params.go:21)	MOVD	$go.itab."".Rock,"".Rocker(SB), R0
	0x0064 00100 (typed_params.go:21)	MOVD	$runtime.zerobase(SB), R1
	0x006c 00108 (typed_params.go:21)	MOVD	-8(RSP), R29
	0x0070 00112 (typed_params.go:21)	MOVD.P	80(RSP), R30
	0x0074 00116 (typed_params.go:21)	RET	(R30)
	0x0078 00120 (typed_params.go:21)	NOP
	0x0078 00120 (typed_params.go:19)	PCDATA	$1, $-1
	0x0078 00120 (typed_params.go:19)	PCDATA	$0, $-2
	0x0078 00120 (typed_params.go:19)	MOVD	R30, R3
	0x007c 00124 (typed_params.go:19)	CALL	runtime.morestack_noctxt(SB)
	0x0080 00128 (typed_params.go:19)	PCDATA	$0, $-1
	0x0080 00128 (typed_params.go:19)	JMP	0
	0x0000 90 0b 40 f9 f1 03 00 91 3f 02 10 eb 69 03 00 54  ..@.....?...i..T
	0x0010 fe 0f 1b f8 fd 83 1f f8 fd 23 00 d1 ff ff 03 a9  .........#......
	0x0020 05 00 00 90 a5 00 00 91 e5 1f 00 f9 05 00 00 90  ................
	0x0030 a5 00 00 91 e5 23 00 f9 1b 00 00 90 7b 03 00 91  .....#......{...
	0x0040 61 03 40 f9 00 00 00 90 00 00 00 91 e2 e3 00 91  a.@.............
	0x0050 e3 03 40 b2 e4 03 03 aa 00 00 00 94 00 00 00 90  ..@.............
	0x0060 00 00 00 91 01 00 00 90 21 00 00 91 fd 83 5f f8  ........!....._.
	0x0070 fe 07 45 f8 c0 03 5f d6 e3 03 1e aa 00 00 00 94  ..E..._.........
	0x0080 e0 ff ff 17 00 00 00 00 00 00 00 00 00 00 00 00  ................
	rel 0+0 t=24 type.string+0
	rel 0+0 t=24 type.*os.File+0
	rel 0+0 t=24 type."".Rock+0
	rel 32+8 t=3 type.string+0
	rel 44+8 t=3 ""..stmp_0+0
	rel 56+8 t=3 os.Stdout+0
	rel 68+8 t=3 go.itab.*os.File,io.Writer+0
	rel 88+4 t=9 fmt.Fprintln+0
	rel 92+8 t=3 go.itab."".Rock,"".Rocker+0
	rel 100+8 t=3 runtime.zerobase+0
	rel 124+4 t=9 runtime.morestack_noctxt+0
"".Profe.Poler STEXT size=16 args=0x10 locals=0x0 funcid=0x0 leaf
	0x0000 00000 (typed_params.go:30)	TEXT	"".Profe.Poler(SB), LEAF|NOFRAME|ABIInternal, $0-16
	0x0000 00000 (typed_params.go:30)	MOVD	R0, "".h(FP)
	0x0004 00004 (typed_params.go:30)	FUNCDATA	ZR, gclocals·1a65e721a2ccc325b382662e7ffee780(SB)
	0x0004 00004 (typed_params.go:30)	FUNCDATA	$1, gclocals·69c1753bd5f81501d95132d08af04464(SB)
	0x0004 00004 (typed_params.go:30)	FUNCDATA	$5, "".Profe.Poler.arginfo1(SB)
	0x0004 00004 (typed_params.go:31)	RET	(R30)
	0x0000 e0 07 00 f9 c0 03 5f d6 00 00 00 00 00 00 00 00  ......_.........
"".Pp[.shape.struct {},.shape.struct { Content string }] STEXT dupok size=416 args=0x30 locals=0x98 funcid=0x0
	0x0000 00000 (typed_params.go:34)	TEXT	"".Pp[.shape.struct {},.shape.struct { Content string }](SB), DUPOK|ABIInternal, $160-48
	0x0000 00000 (typed_params.go:34)	MOVD	16(g), R16
	0x0004 00004 (typed_params.go:34)	PCDATA	$0, $-2
	0x0004 00004 (typed_params.go:34)	SUB	$32, RSP, R17
	0x0008 00008 (typed_params.go:34)	CMP	R16, R17
	0x000c 00012 (typed_params.go:34)	BLS	352
	0x0010 00016 (typed_params.go:34)	PCDATA	$0, $-1
	0x0010 00016 (typed_params.go:34)	MOVD.W	R30, -160(RSP)
	0x0014 00020 (typed_params.go:34)	MOVD	R29, -8(RSP)
	0x0018 00024 (typed_params.go:34)	SUB	$8, RSP, R29
	0x001c 00028 (typed_params.go:34)	MOVD	R1, "".aa+8(FP)
	0x0020 00032 (typed_params.go:34)	MOVD	R4, "".bb+32(FP)
	0x0024 00036 (typed_params.go:34)	FUNCDATA	ZR, gclocals·05039808e1b9416442f250d7e9d89936(SB)
	0x0024 00036 (typed_params.go:34)	FUNCDATA	$1, gclocals·b17f3c15d42abc325892a4740a916ddc(SB)
	0x0024 00036 (typed_params.go:34)	FUNCDATA	$2, "".Pp[.shape.struct {},.shape.struct { Content string }].stkobj(SB)
	0x0024 00036 (typed_params.go:34)	FUNCDATA	$5, "".Pp[.shape.struct {},.shape.struct { Content string }].arginfo1(SB)
	0x0024 00036 (typed_params.go:34)	PCDATA	ZR, $-2
	0x0024 00036 (typed_params.go:34)	MOVD	R0, ""..dict(FP)
	0x0028 00040 (typed_params.go:35)	CMP	ZR, R2
	0x002c 00044 (typed_params.go:35)	BLE	68
	0x0030 00048 (typed_params.go:35)	MOVD	R2, "".aa+16(FP)
	0x0034 00052 (typed_params.go:38)	MOVD	R4, ""..autotmp_39-88(SP)
	0x0038 00056 (typed_params.go:38)	MOVD	R5, ""..autotmp_40-96(SP)
	0x003c 00060 (typed_params.go:38)	MOVD	ZR, R1
	0x0040 00064 (typed_params.go:35)	JMP	212
	0x0044 00068 (typed_params.go:38)	PCDATA	ZR, $-1
	0x0044 00068 (typed_params.go:38)	MOVD	R4, ""..autotmp_27-80(SP)
	0x0048 00072 (typed_params.go:38)	MOVD	R5, ""..autotmp_27-72(SP)
	0x004c 00076 (typed_params.go:34)	MOVD	""..autotmp_27-80(SP), R0
	0x0050 00080 (typed_params.go:34)	MOVD	""..autotmp_27-72(SP), R1
	0x0054 00084 (typed_params.go:38)	PCDATA	$1, $1
	0x0054 00084 (typed_params.go:38)	CALL	runtime.convTstring(SB)
	0x0058 00088 (typed_params.go:38)	PCDATA	ZR, $-2
	0x0058 00088 (typed_params.go:38)	MOVD	""..dict(FP), R2
	0x005c 00092 (typed_params.go:38)	PCDATA	ZR, $-1
	0x005c 00092 (typed_params.go:38)	MOVD	48(R2), R2
	0x0060 00096 (typed_params.go:38)	MOVD	24(R2), R2
	0x0064 00100 (typed_params.go:38)	CALL	(R2)
	0x0068 00104 (typed_params.go:38)	STP	(ZR, ZR), ""..autotmp_31-64(SP)
	0x006c 00108 (typed_params.go:38)	STP	(ZR, ZR), ""..autotmp_31-48(SP)
	0x0070 00112 (typed_params.go:38)	MOVD	$type.string(SB), R2
	0x0078 00120 (typed_params.go:38)	MOVD	R2, ""..autotmp_31-64(SP)
	0x007c 00124 (typed_params.go:38)	MOVD	$""..stmp_2(SB), R3
	0x0084 00132 (typed_params.go:38)	MOVD	R3, ""..autotmp_31-56(SP)
	0x0088 00136 (typed_params.go:38)	PCDATA	$1, $2
	0x0088 00136 (typed_params.go:38)	CALL	runtime.convTstring(SB)
	0x008c 00140 (typed_params.go:38)	MOVD	$type.string(SB), R2
	0x0094 00148 (typed_params.go:38)	MOVD	R2, ""..autotmp_31-48(SP)
	0x0098 00152 (typed_params.go:38)	MOVD	R0, ""..autotmp_31-40(SP)
	0x009c 00156 (<unknown line number>)	NOP
	0x009c 00156 (<unknown line number>)	PCDATA	$0, $-3
	0x009c 00156 ($GOROOT/src/fmt/print.go:274)	MOVD	os.Stdout(SB), R1
	0x00a8 00168 ($GOROOT/src/fmt/print.go:274)	PCDATA	$0, $-1
	0x00a8 00168 ($GOROOT/src/fmt/print.go:274)	MOVD	$go.itab.*os.File,io.Writer(SB), R0
	0x00b0 00176 ($GOROOT/src/fmt/print.go:274)	MOVD	$""..autotmp_31-64(SP), R2
	0x00b4 00180 ($GOROOT/src/fmt/print.go:274)	MOVD	$2, R3
	0x00b8 00184 ($GOROOT/src/fmt/print.go:274)	MOVD	R3, R4
	0x00bc 00188 ($GOROOT/src/fmt/print.go:274)	PCDATA	$1, $1
	0x00bc 00188 ($GOROOT/src/fmt/print.go:274)	CALL	fmt.Fprintln(SB)
	0x00c0 00192 (typed_params.go:38)	MOVD	-8(RSP), R29
	0x00c4 00196 (typed_params.go:38)	MOVD.P	160(RSP), R30
	0x00c8 00200 (typed_params.go:38)	RET	(R30)
	0x00cc 00204 (typed_params.go:36)	PCDATA	ZR, $-2
	0x00cc 00204 (typed_params.go:36)	MOVD	""..dict(FP), R0
	0x00d0 00208 (typed_params.go:35)	MOVD	R5, R1
	0x00d4 00212 (typed_params.go:35)	MOVD	R1, ""..autotmp_41-104(SP)
	0x00d8 00216 (typed_params.go:36)	PCDATA	ZR, $-1
	0x00d8 00216 (typed_params.go:36)	MOVD	40(R0), R3
	0x00dc 00220 (typed_params.go:36)	MOVD	24(R3), R3
	0x00e0 00224 (typed_params.go:36)	MOVD	$runtime.zerobase(SB), R0
	0x00e8 00232 (typed_params.go:36)	PCDATA	$1, $3
	0x00e8 00232 (typed_params.go:36)	CALL	(R3)
	0x00ec 00236 (typed_params.go:36)	STP	(ZR, ZR), ""..autotmp_24-32(SP)
	0x00f0 00240 (typed_params.go:36)	STP	(ZR, ZR), ""..autotmp_24-16(SP)
	0x00f4 00244 (typed_params.go:36)	MOVD	$type.string(SB), R2
	0x00fc 00252 (typed_params.go:36)	MOVD	R2, ""..autotmp_24-32(SP)
	0x0100 00256 (typed_params.go:36)	MOVD	$""..stmp_1(SB), R3
	0x0108 00264 (typed_params.go:36)	MOVD	R3, ""..autotmp_24-24(SP)
	0x010c 00268 (typed_params.go:36)	CBZ	R0, 276
	0x0110 00272 (typed_params.go:36)	MOVD	8(R0), R0
	0x0114 00276 (typed_params.go:36)	MOVD	R0, ""..autotmp_24-16(SP)
	0x0118 00280 (typed_params.go:36)	MOVD	R1, ""..autotmp_24-8(SP)
	0x011c 00284 (<unknown line number>)	NOP
	0x011c 00284 (<unknown line number>)	PCDATA	$0, $-4
	0x011c 00284 ($GOROOT/src/fmt/print.go:274)	MOVD	os.Stdout(SB), R1
	0x0128 00296 ($GOROOT/src/fmt/print.go:274)	PCDATA	$0, $-1
	0x0128 00296 ($GOROOT/src/fmt/print.go:274)	MOVD	$go.itab.*os.File,io.Writer(SB), R0
	0x0130 00304 ($GOROOT/src/fmt/print.go:274)	MOVD	$""..autotmp_24-32(SP), R2
	0x0134 00308 ($GOROOT/src/fmt/print.go:274)	MOVD	$2, R3
	0x0138 00312 ($GOROOT/src/fmt/print.go:274)	MOVD	R3, R4
	0x013c 00316 ($GOROOT/src/fmt/print.go:274)	CALL	fmt.Fprintln(SB)
	0x0140 00320 (typed_params.go:35)	PCDATA	ZR, $-2
	0x0140 00320 (typed_params.go:35)	MOVD	""..autotmp_41-104(SP), R5
	0x0144 00324 (typed_params.go:35)	ADD	$1, R5, R5
	0x0148 00328 (typed_params.go:35)	MOVD	"".aa+16(FP), R6
	0x014c 00332 (typed_params.go:35)	CMP	R5, R6
	0x0150 00336 (typed_params.go:35)	BGT	204
	0x0154 00340 (typed_params.go:38)	PCDATA	ZR, $-1
	0x0154 00340 (typed_params.go:38)	MOVD	""..autotmp_39-88(SP), R4
	0x0158 00344 (typed_params.go:38)	MOVD	""..autotmp_40-96(SP), R5
	0x015c 00348 (typed_params.go:35)	JMP	68
	0x0160 00352 (typed_params.go:35)	NOP
	0x0160 00352 (typed_params.go:34)	PCDATA	$1, $-1
	0x0160 00352 (typed_params.go:34)	PCDATA	$0, $-2
	0x0160 00352 (typed_params.go:34)	MOVD	R0, 8(RSP)
	0x0164 00356 (typed_params.go:34)	MOVD	R1, 16(RSP)
	0x0168 00360 (typed_params.go:34)	MOVD	R2, 24(RSP)
	0x016c 00364 (typed_params.go:34)	MOVD	R3, 32(RSP)
	0x0170 00368 (typed_params.go:34)	MOVD	R4, 40(RSP)
	0x0174 00372 (typed_params.go:34)	MOVD	R5, 48(RSP)
	0x0178 00376 (typed_params.go:34)	MOVD	R30, R3
	0x017c 00380 (typed_params.go:34)	CALL	runtime.morestack_noctxt(SB)
	0x0180 00384 (typed_params.go:34)	MOVD	8(RSP), R0
	0x0184 00388 (typed_params.go:34)	MOVD	16(RSP), R1
	0x0188 00392 (typed_params.go:34)	MOVD	24(RSP), R2
	0x018c 00396 (typed_params.go:34)	MOVD	32(RSP), R3
	0x0190 00400 (typed_params.go:34)	MOVD	40(RSP), R4
	0x0194 00404 (typed_params.go:34)	MOVD	48(RSP), R5
	0x0198 00408 (typed_params.go:34)	PCDATA	$0, $-1
	0x0198 00408 (typed_params.go:34)	JMP	0
	0x0000 90 0b 40 f9 f1 83 00 d1 3f 02 10 eb a9 0a 00 54  ..@.....?......T
	0x0010 fe 0f 16 f8 fd 83 1f f8 fd 23 00 d1 e1 5b 00 f9  .........#...[..
	0x0020 e4 67 00 f9 e0 57 00 f9 5f 00 1f eb cd 00 00 54  .g...W.._......T
	0x0030 e2 5f 00 f9 e4 23 00 f9 e5 1f 00 f9 01 00 80 d2  ._...#..........
	0x0040 25 00 00 14 e4 27 00 f9 e5 2b 00 f9 e0 27 40 f9  %....'...+...'@.
	0x0050 e1 2b 40 f9 00 00 00 94 e2 57 40 f9 42 18 40 f9  .+@......W@.B.@.
	0x0060 42 0c 40 f9 40 00 3f d6 ff ff 05 a9 ff ff 06 a9  B.@.@.?.........
	0x0070 02 00 00 90 42 00 00 91 e2 2f 00 f9 03 00 00 90  ....B..../......
	0x0080 63 00 00 91 e3 33 00 f9 00 00 00 94 02 00 00 90  c....3..........
	0x0090 42 00 00 91 e2 37 00 f9 e0 3b 00 f9 1b 00 00 90  B....7...;......
	0x00a0 7b 03 00 91 61 03 40 f9 00 00 00 90 00 00 00 91  {...a.@.........
	0x00b0 e2 63 01 91 e3 03 7f b2 e4 03 03 aa 00 00 00 94  .c..............
	0x00c0 fd 83 5f f8 fe 07 4a f8 c0 03 5f d6 e0 57 40 f9  .._...J..._..W@.
	0x00d0 e1 03 05 aa e1 1b 00 f9 03 14 40 f9 63 0c 40 f9  ..........@.c.@.
	0x00e0 00 00 00 90 00 00 00 91 60 00 3f d6 ff ff 07 a9  ........`.?.....
	0x00f0 ff ff 08 a9 02 00 00 90 42 00 00 91 e2 3f 00 f9  ........B....?..
	0x0100 03 00 00 90 63 00 00 91 e3 43 00 f9 40 00 00 b4  ....c....C..@...
	0x0110 00 04 40 f9 e0 47 00 f9 e1 4b 00 f9 1b 00 00 90  ..@..G...K......
	0x0120 7b 03 00 91 61 03 40 f9 00 00 00 90 00 00 00 91  {...a.@.........
	0x0130 e2 e3 01 91 e3 03 7f b2 e4 03 03 aa 00 00 00 94  ................
	0x0140 e5 1b 40 f9 a5 04 00 91 e6 5f 40 f9 df 00 05 eb  ..@......_@.....
	0x0150 ec fb ff 54 e4 23 40 f9 e5 1f 40 f9 ba ff ff 17  ...T.#@...@.....
	0x0160 e0 07 00 f9 e1 0b 00 f9 e2 0f 00 f9 e3 13 00 f9  ................
	0x0170 e4 17 00 f9 e5 1b 00 f9 e3 03 1e aa 00 00 00 94  ................
	0x0180 e0 07 40 f9 e1 0b 40 f9 e2 0f 40 f9 e3 13 40 f9  ..@...@...@...@.
	0x0190 e4 17 40 f9 e5 1b 40 f9 9a ff ff 17 00 00 00 00  ..@...@.........
	rel 0+0 t=25 type."".Rocker+96
	rel 0+0 t=24 type.string+0
	rel 0+0 t=24 type.*os.File+0
	rel 0+0 t=25 type."".Profer+96
	rel 0+0 t=24 type.string+0
	rel 0+0 t=24 type.string+0
	rel 0+0 t=24 type.*os.File+0
	rel 84+4 t=9 runtime.convTstring+0
	rel 100+0 t=10 +0
	rel 112+8 t=3 type.string+0
	rel 124+8 t=3 ""..stmp_2+0
	rel 136+4 t=9 runtime.convTstring+0
	rel 140+8 t=3 type.string+0
	rel 156+8 t=3 os.Stdout+0
	rel 168+8 t=3 go.itab.*os.File,io.Writer+0
	rel 188+4 t=9 fmt.Fprintln+0
	rel 224+8 t=3 runtime.zerobase+0
	rel 232+0 t=10 +0
	rel 244+8 t=3 type.string+0
	rel 256+8 t=3 ""..stmp_1+0
	rel 284+8 t=3 os.Stdout+0
	rel 296+8 t=3 go.itab.*os.File,io.Writer+0
	rel 316+4 t=9 fmt.Fprintln+0
	rel 380+4 t=9 runtime.morestack_noctxt+0
"".(*Rock).Puuuuu STEXT dupok size=192 args=0x8 locals=0x48 funcid=0x15
	0x0000 00000 (<autogenerated>:1)	TEXT	"".(*Rock).Puuuuu(SB), DUPOK|WRAPPER|ABIInternal, $80-8
	0x0000 00000 (<autogenerated>:1)	MOVD	16(g), R16
	0x0004 00004 (<autogenerated>:1)	PCDATA	$0, $-2
	0x0004 00004 (<autogenerated>:1)	MOVD	RSP, R17
	0x0008 00008 (<autogenerated>:1)	CMP	R16, R17
	0x000c 00012 (<autogenerated>:1)	BLS	144
	0x0010 00016 (<autogenerated>:1)	PCDATA	$0, $-1
	0x0010 00016 (<autogenerated>:1)	MOVD.W	R30, -80(RSP)
	0x0014 00020 (<autogenerated>:1)	MOVD	R29, -8(RSP)
	0x0018 00024 (<autogenerated>:1)	SUB	$8, RSP, R29
	0x001c 00028 (<autogenerated>:1)	MOVD	32(g), R16
	0x0020 00032 (<autogenerated>:1)	CBNZ	R16, 164
	0x0024 00036 (<autogenerated>:1)	NOP
	0x0024 00036 (<autogenerated>:1)	FUNCDATA	ZR, gclocals·1a65e721a2ccc325b382662e7ffee780(SB)
	0x0024 00036 (<autogenerated>:1)	FUNCDATA	$1, gclocals·2589ca35330fc0fce83503f4569854a0(SB)
	0x0024 00036 (<autogenerated>:1)	FUNCDATA	$2, "".(*Rock).Puuuuu.stkobj(SB)
	0x0024 00036 (<autogenerated>:1)	FUNCDATA	$5, "".(*Rock).Puuuuu.arginfo1(SB)
	0x0024 00036 (<autogenerated>:1)	MOVD	R0, ""..this(FP)
	0x0028 00040 (<autogenerated>:1)	CBZ	R0, 136
	0x002c 00044 (<unknown line number>)	NOP
	0x002c 00044 (typed_params.go:20)	STP	(ZR, ZR), ""..autotmp_13-16(SP)
	0x0030 00048 (typed_params.go:20)	MOVD	$type.string(SB), R5
	0x0038 00056 (typed_params.go:20)	MOVD	R5, ""..autotmp_13-16(SP)
	0x003c 00060 (typed_params.go:20)	MOVD	$""..stmp_3(SB), R5
	0x0044 00068 (typed_params.go:20)	MOVD	R5, ""..autotmp_13-8(SP)
	0x0048 00072 (<unknown line number>)	NOP
	0x0048 00072 (<unknown line number>)	PCDATA	$0, $-3
	0x0048 00072 ($GOROOT/src/fmt/print.go:274)	MOVD	os.Stdout(SB), R1
	0x0054 00084 ($GOROOT/src/fmt/print.go:274)	PCDATA	$0, $-1
	0x0054 00084 ($GOROOT/src/fmt/print.go:274)	MOVD	$go.itab.*os.File,io.Writer(SB), R0
	0x005c 00092 ($GOROOT/src/fmt/print.go:274)	MOVD	$""..autotmp_13-16(SP), R2
	0x0060 00096 ($GOROOT/src/fmt/print.go:274)	MOVD	$1, R3
	0x0064 00100 ($GOROOT/src/fmt/print.go:274)	MOVD	R3, R4
	0x0068 00104 ($GOROOT/src/fmt/print.go:274)	PCDATA	$1, $1
	0x0068 00104 ($GOROOT/src/fmt/print.go:274)	CALL	fmt.Fprintln(SB)
	0x006c 00108 (<autogenerated>:1)	MOVD	$go.itab."".Rock,"".Rocker(SB), R0
	0x0074 00116 (<autogenerated>:1)	MOVD	$runtime.zerobase(SB), R1
	0x007c 00124 (<autogenerated>:1)	MOVD	-8(RSP), R29
	0x0080 00128 (<autogenerated>:1)	MOVD.P	80(RSP), R30
	0x0084 00132 (<autogenerated>:1)	RET	(R30)
	0x0088 00136 (<autogenerated>:1)	CALL	runtime.panicwrap(SB)
	0x008c 00140 (<autogenerated>:1)	HINT	ZR
	0x0090 00144 (<autogenerated>:1)	NOP
	0x0090 00144 (<autogenerated>:1)	PCDATA	$1, $-1
	0x0090 00144 (<autogenerated>:1)	PCDATA	$0, $-2
	0x0090 00144 (<autogenerated>:1)	MOVD	R0, 8(RSP)
	0x0094 00148 (<autogenerated>:1)	MOVD	R30, R3
	0x0098 00152 (<autogenerated>:1)	CALL	runtime.morestack_noctxt(SB)
	0x009c 00156 (<autogenerated>:1)	MOVD	8(RSP), R0
	0x00a0 00160 (<autogenerated>:1)	PCDATA	$0, $-1
	0x00a0 00160 (<autogenerated>:1)	JMP	0
	0x00a4 00164 (<autogenerated>:1)	MOVD	(R16), R17
	0x00a8 00168 (<autogenerated>:1)	ADD	$88, RSP, R20
	0x00ac 00172 (<autogenerated>:1)	CMP	R17, R20
	0x00b0 00176 (<autogenerated>:1)	BNE	36
	0x00b4 00180 (<autogenerated>:1)	ADD	$8, RSP, R20
	0x00b8 00184 (<autogenerated>:1)	MOVD	R20, (R16)
	0x00bc 00188 (<autogenerated>:1)	JMP	36
	0x0000 90 0b 40 f9 f1 03 00 91 3f 02 10 eb 29 04 00 54  ..@.....?...)..T
	0x0010 fe 0f 1b f8 fd 83 1f f8 fd 23 00 d1 90 13 40 f9  .........#....@.
	0x0020 30 04 00 b5 e0 2f 00 f9 00 03 00 b4 ff ff 03 a9  0..../..........
	0x0030 05 00 00 90 a5 00 00 91 e5 1f 00 f9 05 00 00 90  ................
	0x0040 a5 00 00 91 e5 23 00 f9 1b 00 00 90 7b 03 00 91  .....#......{...
	0x0050 61 03 40 f9 00 00 00 90 00 00 00 91 e2 e3 00 91  a.@.............
	0x0060 e3 03 40 b2 e4 03 03 aa 00 00 00 94 00 00 00 90  ..@.............
	0x0070 00 00 00 91 01 00 00 90 21 00 00 91 fd 83 5f f8  ........!....._.
	0x0080 fe 07 45 f8 c0 03 5f d6 00 00 00 94 1f 20 03 d5  ..E..._...... ..
	0x0090 e0 07 00 f9 e3 03 1e aa 00 00 00 94 e0 07 40 f9  ..............@.
	0x00a0 d8 ff ff 17 11 02 40 f9 f4 63 01 91 9f 02 11 eb  ......@..c......
	0x00b0 a1 fb ff 54 f4 23 00 91 14 02 00 f9 da ff ff 17  ...T.#..........
	rel 0+0 t=24 type.string+0
	rel 0+0 t=24 type.*os.File+0
	rel 0+0 t=24 type."".Rock+0
	rel 48+8 t=3 type.string+0
	rel 60+8 t=3 ""..stmp_3+0
	rel 72+8 t=3 os.Stdout+0
	rel 84+8 t=3 go.itab.*os.File,io.Writer+0
	rel 104+4 t=9 fmt.Fprintln+0
	rel 108+8 t=3 go.itab."".Rock,"".Rocker+0
	rel 116+8 t=3 runtime.zerobase+0
	rel 136+4 t=9 runtime.panicwrap+0
	rel 152+4 t=9 runtime.morestack_noctxt+0
"".Rocker.Puuuuu STEXT dupok size=144 args=0x10 locals=0x18 funcid=0x15
	0x0000 00000 (<autogenerated>:1)	TEXT	"".Rocker.Puuuuu(SB), DUPOK|WRAPPER|ABIInternal, $32-16
	0x0000 00000 (<autogenerated>:1)	MOVD	16(g), R16
	0x0004 00004 (<autogenerated>:1)	PCDATA	$0, $-2
	0x0004 00004 (<autogenerated>:1)	MOVD	RSP, R17
	0x0008 00008 (<autogenerated>:1)	CMP	R16, R17
	0x000c 00012 (<autogenerated>:1)	BLS	76
	0x0010 00016 (<autogenerated>:1)	PCDATA	$0, $-1
	0x0010 00016 (<autogenerated>:1)	MOVD.W	R30, -32(RSP)
	0x0014 00020 (<autogenerated>:1)	MOVD	R29, -8(RSP)
	0x0018 00024 (<autogenerated>:1)	SUB	$8, RSP, R29
	0x001c 00028 (<autogenerated>:1)	MOVD	32(g), R16
	0x0020 00032 (<autogenerated>:1)	CBNZ	R16, 104
	0x0024 00036 (<autogenerated>:1)	NOP
	0x0024 00036 (<autogenerated>:1)	MOVD	R0, ""..this(FP)
	0x0028 00040 (<autogenerated>:1)	MOVD	R1, ""..this+8(FP)
	0x002c 00044 (<autogenerated>:1)	FUNCDATA	ZR, gclocals·09cf9819fc716118c209c2d2155a3632(SB)
	0x002c 00044 (<autogenerated>:1)	FUNCDATA	$1, gclocals·69c1753bd5f81501d95132d08af04464(SB)
	0x002c 00044 (<autogenerated>:1)	FUNCDATA	$5, "".Rocker.Puuuuu.arginfo1(SB)
	0x002c 00044 (<autogenerated>:1)	MOVD	R0, ""..this(FP)
	0x0030 00048 (<autogenerated>:1)	MOVD	R1, ""..this+8(FP)
	0x0034 00052 (<autogenerated>:1)	MOVD	24(R0), R2
	0x0038 00056 (<autogenerated>:1)	MOVD	R1, R0
	0x003c 00060 (<autogenerated>:1)	PCDATA	$1, $1
	0x003c 00060 (<autogenerated>:1)	CALL	(R2)
	0x0040 00064 (<autogenerated>:1)	MOVD	-8(RSP), R29
	0x0044 00068 (<autogenerated>:1)	MOVD.P	32(RSP), R30
	0x0048 00072 (<autogenerated>:1)	RET	(R30)
	0x004c 00076 (<autogenerated>:1)	NOP
	0x004c 00076 (<autogenerated>:1)	PCDATA	$1, $-1
	0x004c 00076 (<autogenerated>:1)	PCDATA	$0, $-2
	0x004c 00076 (<autogenerated>:1)	MOVD	R0, 8(RSP)
	0x0050 00080 (<autogenerated>:1)	MOVD	R1, 16(RSP)
	0x0054 00084 (<autogenerated>:1)	MOVD	R30, R3
	0x0058 00088 (<autogenerated>:1)	CALL	runtime.morestack_noctxt(SB)
	0x005c 00092 (<autogenerated>:1)	MOVD	8(RSP), R0
	0x0060 00096 (<autogenerated>:1)	MOVD	16(RSP), R1
	0x0064 00100 (<autogenerated>:1)	PCDATA	$0, $-1
	0x0064 00100 (<autogenerated>:1)	JMP	0
	0x0068 00104 (<autogenerated>:1)	MOVD	(R16), R17
	0x006c 00108 (<autogenerated>:1)	ADD	$40, RSP, R20
	0x0070 00112 (<autogenerated>:1)	CMP	R17, R20
	0x0074 00116 (<autogenerated>:1)	BNE	36
	0x0078 00120 (<autogenerated>:1)	ADD	$8, RSP, R20
	0x007c 00124 (<autogenerated>:1)	MOVD	R20, (R16)
	0x0080 00128 (<autogenerated>:1)	JMP	36
	0x0000 90 0b 40 f9 f1 03 00 91 3f 02 10 eb 09 02 00 54  ..@.....?......T
	0x0010 fe 0f 1e f8 fd 83 1f f8 fd 23 00 d1 90 13 40 f9  .........#....@.
	0x0020 50 02 00 b5 e0 17 00 f9 e1 1b 00 f9 e0 17 00 f9  P...............
	0x0030 e1 1b 00 f9 02 0c 40 f9 e0 03 01 aa 40 00 3f d6  ......@.....@.?.
	0x0040 fd 83 5f f8 fe 07 42 f8 c0 03 5f d6 e0 07 00 f9  .._...B..._.....
	0x0050 e1 0b 00 f9 e3 03 1e aa 00 00 00 94 e0 07 40 f9  ..............@.
	0x0060 e1 0b 40 f9 e7 ff ff 17 11 02 40 f9 f4 a3 00 91  ..@.......@.....
	0x0070 9f 02 11 eb 81 fd ff 54 f4 23 00 91 14 02 00 f9  .......T.#......
	0x0080 e9 ff ff 17 00 00 00 00 00 00 00 00 00 00 00 00  ................
	rel 0+0 t=25 type."".Rocker+96
	rel 60+0 t=10 +0
	rel 88+4 t=9 runtime.morestack_noctxt+0
"".(*Profe).Poler STEXT dupok size=128 args=0x8 locals=0x8 funcid=0x15
	0x0000 00000 (<autogenerated>:1)	TEXT	"".(*Profe).Poler(SB), DUPOK|WRAPPER|ABIInternal, $16-8
	0x0000 00000 (<autogenerated>:1)	MOVD	16(g), R16
	0x0004 00004 (<autogenerated>:1)	PCDATA	$0, $-2
	0x0004 00004 (<autogenerated>:1)	MOVD	RSP, R17
	0x0008 00008 (<autogenerated>:1)	CMP	R16, R17
	0x000c 00012 (<autogenerated>:1)	BLS	76
	0x0010 00016 (<autogenerated>:1)	PCDATA	$0, $-1
	0x0010 00016 (<autogenerated>:1)	MOVD.W	R30, -16(RSP)
	0x0014 00020 (<autogenerated>:1)	MOVD	R29, -8(RSP)
	0x0018 00024 (<autogenerated>:1)	SUB	$8, RSP, R29
	0x001c 00028 (<autogenerated>:1)	MOVD	32(g), R16
	0x0020 00032 (<autogenerated>:1)	CBNZ	R16, 96
	0x0024 00036 (<autogenerated>:1)	NOP
	0x0024 00036 (<autogenerated>:1)	FUNCDATA	ZR, gclocals·1a65e721a2ccc325b382662e7ffee780(SB)
	0x0024 00036 (<autogenerated>:1)	FUNCDATA	$1, gclocals·69c1753bd5f81501d95132d08af04464(SB)
	0x0024 00036 (<autogenerated>:1)	FUNCDATA	$5, "".(*Profe).Poler.arginfo1(SB)
	0x0024 00036 (<autogenerated>:1)	MOVD	R0, ""..this(FP)
	0x0028 00040 (<autogenerated>:1)	CBZ	R0, 68
	0x002c 00044 (<autogenerated>:1)	MOVD	(R0), R2
	0x0030 00048 (<autogenerated>:1)	MOVD	8(R0), R1
	0x0034 00052 (<autogenerated>:1)	MOVD	R2, R0
	0x0038 00056 (<autogenerated>:1)	MOVD	-8(RSP), R29
	0x003c 00060 (<autogenerated>:1)	MOVD.P	16(RSP), R30
	0x0040 00064 (<autogenerated>:1)	RET	(R30)
	0x0044 00068 (<autogenerated>:1)	PCDATA	$1, $1
	0x0044 00068 (<autogenerated>:1)	CALL	runtime.panicwrap(SB)
	0x0048 00072 (<autogenerated>:1)	HINT	ZR
	0x004c 00076 (<autogenerated>:1)	NOP
	0x004c 00076 (<autogenerated>:1)	PCDATA	$1, $-1
	0x004c 00076 (<autogenerated>:1)	PCDATA	$0, $-2
	0x004c 00076 (<autogenerated>:1)	MOVD	R0, 8(RSP)
	0x0050 00080 (<autogenerated>:1)	MOVD	R30, R3
	0x0054 00084 (<autogenerated>:1)	CALL	runtime.morestack_noctxt(SB)
	0x0058 00088 (<autogenerated>:1)	MOVD	8(RSP), R0
	0x005c 00092 (<autogenerated>:1)	PCDATA	$0, $-1
	0x005c 00092 (<autogenerated>:1)	JMP	0
	0x0060 00096 (<autogenerated>:1)	MOVD	(R16), R17
	0x0064 00100 (<autogenerated>:1)	ADD	$24, RSP, R20
	0x0068 00104 (<autogenerated>:1)	CMP	R17, R20
	0x006c 00108 (<autogenerated>:1)	BNE	36
	0x0070 00112 (<autogenerated>:1)	ADD	$8, RSP, R20
	0x0074 00116 (<autogenerated>:1)	MOVD	R20, (R16)
	0x0078 00120 (<autogenerated>:1)	JMP	36
	0x0000 90 0b 40 f9 f1 03 00 91 3f 02 10 eb 09 02 00 54  ..@.....?......T
	0x0010 fe 0f 1f f8 fd 83 1f f8 fd 23 00 d1 90 13 40 f9  .........#....@.
	0x0020 10 02 00 b5 e0 0f 00 f9 e0 00 00 b4 02 00 40 f9  ..............@.
	0x0030 01 04 40 f9 e0 03 02 aa fd 83 5f f8 fe 07 41 f8  ..@......._...A.
	0x0040 c0 03 5f d6 00 00 00 94 1f 20 03 d5 e0 07 00 f9  .._...... ......
	0x0050 e3 03 1e aa 00 00 00 94 e0 07 40 f9 e9 ff ff 17  ..........@.....
	0x0060 11 02 40 f9 f4 63 00 91 9f 02 11 eb c1 fd ff 54  ..@..c.........T
	0x0070 f4 23 00 91 14 02 00 f9 eb ff ff 17 00 00 00 00  .#..............
	rel 68+4 t=9 runtime.panicwrap+0
	rel 84+4 t=9 runtime.morestack_noctxt+0
"".Profer.Poler STEXT dupok size=144 args=0x10 locals=0x18 funcid=0x15
	0x0000 00000 (<autogenerated>:1)	TEXT	"".Profer.Poler(SB), DUPOK|WRAPPER|ABIInternal, $32-16
	0x0000 00000 (<autogenerated>:1)	MOVD	16(g), R16
	0x0004 00004 (<autogenerated>:1)	PCDATA	$0, $-2
	0x0004 00004 (<autogenerated>:1)	MOVD	RSP, R17
	0x0008 00008 (<autogenerated>:1)	CMP	R16, R17
	0x000c 00012 (<autogenerated>:1)	BLS	76
	0x0010 00016 (<autogenerated>:1)	PCDATA	$0, $-1
	0x0010 00016 (<autogenerated>:1)	MOVD.W	R30, -32(RSP)
	0x0014 00020 (<autogenerated>:1)	MOVD	R29, -8(RSP)
	0x0018 00024 (<autogenerated>:1)	SUB	$8, RSP, R29
	0x001c 00028 (<autogenerated>:1)	MOVD	32(g), R16
	0x0020 00032 (<autogenerated>:1)	CBNZ	R16, 104
	0x0024 00036 (<autogenerated>:1)	NOP
	0x0024 00036 (<autogenerated>:1)	MOVD	R0, ""..this(FP)
	0x0028 00040 (<autogenerated>:1)	MOVD	R1, ""..this+8(FP)
	0x002c 00044 (<autogenerated>:1)	FUNCDATA	ZR, gclocals·09cf9819fc716118c209c2d2155a3632(SB)
	0x002c 00044 (<autogenerated>:1)	FUNCDATA	$1, gclocals·69c1753bd5f81501d95132d08af04464(SB)
	0x002c 00044 (<autogenerated>:1)	FUNCDATA	$5, "".Profer.Poler.arginfo1(SB)
	0x002c 00044 (<autogenerated>:1)	MOVD	R0, ""..this(FP)
	0x0030 00048 (<autogenerated>:1)	MOVD	R1, ""..this+8(FP)
	0x0034 00052 (<autogenerated>:1)	MOVD	24(R0), R2
	0x0038 00056 (<autogenerated>:1)	MOVD	R1, R0
	0x003c 00060 (<autogenerated>:1)	PCDATA	$1, $1
	0x003c 00060 (<autogenerated>:1)	CALL	(R2)
	0x0040 00064 (<autogenerated>:1)	MOVD	-8(RSP), R29
	0x0044 00068 (<autogenerated>:1)	MOVD.P	32(RSP), R30
	0x0048 00072 (<autogenerated>:1)	RET	(R30)
	0x004c 00076 (<autogenerated>:1)	NOP
	0x004c 00076 (<autogenerated>:1)	PCDATA	$1, $-1
	0x004c 00076 (<autogenerated>:1)	PCDATA	$0, $-2
	0x004c 00076 (<autogenerated>:1)	MOVD	R0, 8(RSP)
	0x0050 00080 (<autogenerated>:1)	MOVD	R1, 16(RSP)
	0x0054 00084 (<autogenerated>:1)	MOVD	R30, R3
	0x0058 00088 (<autogenerated>:1)	CALL	runtime.morestack_noctxt(SB)
	0x005c 00092 (<autogenerated>:1)	MOVD	8(RSP), R0
	0x0060 00096 (<autogenerated>:1)	MOVD	16(RSP), R1
	0x0064 00100 (<autogenerated>:1)	PCDATA	$0, $-1
	0x0064 00100 (<autogenerated>:1)	JMP	0
	0x0068 00104 (<autogenerated>:1)	MOVD	(R16), R17
	0x006c 00108 (<autogenerated>:1)	ADD	$40, RSP, R20
	0x0070 00112 (<autogenerated>:1)	CMP	R17, R20
	0x0074 00116 (<autogenerated>:1)	BNE	36
	0x0078 00120 (<autogenerated>:1)	ADD	$8, RSP, R20
	0x007c 00124 (<autogenerated>:1)	MOVD	R20, (R16)
	0x0080 00128 (<autogenerated>:1)	JMP	36
	0x0000 90 0b 40 f9 f1 03 00 91 3f 02 10 eb 09 02 00 54  ..@.....?......T
	0x0010 fe 0f 1e f8 fd 83 1f f8 fd 23 00 d1 90 13 40 f9  .........#....@.
	0x0020 50 02 00 b5 e0 17 00 f9 e1 1b 00 f9 e0 17 00 f9  P...............
	0x0030 e1 1b 00 f9 02 0c 40 f9 e0 03 01 aa 40 00 3f d6  ......@.....@.?.
	0x0040 fd 83 5f f8 fe 07 42 f8 c0 03 5f d6 e0 07 00 f9  .._...B..._.....
	0x0050 e1 0b 00 f9 e3 03 1e aa 00 00 00 94 e0 07 40 f9  ..............@.
	0x0060 e1 0b 40 f9 e7 ff ff 17 11 02 40 f9 f4 a3 00 91  ..@.......@.....
	0x0070 9f 02 11 eb 81 fd ff 54 f4 23 00 91 14 02 00 f9  .......T.#......
	0x0080 e9 ff ff 17 00 00 00 00 00 00 00 00 00 00 00 00  ................
	rel 0+0 t=25 type."".Profer+96
	rel 60+0 t=10 +0
	rel 88+4 t=9 runtime.morestack_noctxt+0
runtime.memequal64·f SRODATA dupok size=8
	0x0000 00 00 00 00 00 00 00 00                          ........
	rel 0+8 t=1 runtime.memequal64+0
runtime.gcbits.01 SRODATA dupok size=1
	0x0000 01                                               .
type..namedata.*func() main.Rocker- SRODATA dupok size=21
	0x0000 00 13 2a 66 75 6e 63 28 29 20 6d 61 69 6e 2e 52  ..*func() main.R
	0x0010 6f 63 6b 65 72                                   ocker
type.*func() "".Rocker SRODATA dupok size=56
	0x0000 08 00 00 00 00 00 00 00 08 00 00 00 00 00 00 00  ................
	0x0010 5c 87 c3 1b 08 08 08 36 00 00 00 00 00 00 00 00  \......6........
	0x0020 00 00 00 00 00 00 00 00 00 00 00 00 00 00 00 00  ................
	0x0030 00 00 00 00 00 00 00 00                          ........
	rel 24+8 t=1 runtime.memequal64·f+0
	rel 32+8 t=1 runtime.gcbits.01+0
	rel 40+4 t=5 type..namedata.*func() main.Rocker-+0
	rel 48+8 t=1 type.func() "".Rocker+0
type.func() "".Rocker SRODATA dupok size=64
	0x0000 08 00 00 00 00 00 00 00 08 00 00 00 00 00 00 00  ................
	0x0010 a6 37 12 8b 02 08 08 33 00 00 00 00 00 00 00 00  .7.....3........
	0x0020 00 00 00 00 00 00 00 00 00 00 00 00 00 00 00 00  ................
	0x0030 00 00 01 00 00 00 00 00 00 00 00 00 00 00 00 00  ................
	rel 32+8 t=1 runtime.gcbits.01+0
	rel 40+4 t=5 type..namedata.*func() main.Rocker-+0
	rel 44+4 t=-32763 type.*func() "".Rocker+0
	rel 56+8 t=1 type."".Rocker+0
runtime.interequal·f SRODATA dupok size=8
	0x0000 00 00 00 00 00 00 00 00                          ........
	rel 0+8 t=1 runtime.interequal+0
type..namedata.*main.Rocker. SRODATA dupok size=14
	0x0000 01 0c 2a 6d 61 69 6e 2e 52 6f 63 6b 65 72        ..*main.Rocker
type.*"".Rocker SRODATA size=56
	0x0000 08 00 00 00 00 00 00 00 08 00 00 00 00 00 00 00  ................
	0x0010 e4 4b 2a db 08 08 08 36 00 00 00 00 00 00 00 00  .K*....6........
	0x0020 00 00 00 00 00 00 00 00 00 00 00 00 00 00 00 00  ................
	0x0030 00 00 00 00 00 00 00 00                          ........
	rel 24+8 t=1 runtime.memequal64·f+0
	rel 32+8 t=1 runtime.gcbits.01+0
	rel 40+4 t=5 type..namedata.*main.Rocker.+0
	rel 48+8 t=1 type."".Rocker+0
runtime.gcbits.02 SRODATA dupok size=1
	0x0000 02                                               .
type..namedata.Puuuuu. SRODATA dupok size=8
	0x0000 01 06 50 75 75 75 75 75                          ..Puuuuu
type."".Rocker SRODATA size=104
	0x0000 10 00 00 00 00 00 00 00 10 00 00 00 00 00 00 00  ................
	0x0010 1c d7 ef 8d 07 08 08 14 00 00 00 00 00 00 00 00  ................
	0x0020 00 00 00 00 00 00 00 00 00 00 00 00 00 00 00 00  ................
	0x0030 00 00 00 00 00 00 00 00 00 00 00 00 00 00 00 00  ................
	0x0040 01 00 00 00 00 00 00 00 01 00 00 00 00 00 00 00  ................
	0x0050 00 00 00 00 00 00 00 00 18 00 00 00 00 00 00 00  ................
	0x0060 00 00 00 00 00 00 00 00                          ........
	rel 24+8 t=1 runtime.interequal·f+0
	rel 32+8 t=1 runtime.gcbits.02+0
	rel 40+4 t=5 type..namedata.*main.Rocker.+0
	rel 44+4 t=5 type.*"".Rocker+0
	rel 48+8 t=1 type..importpath."".+0
	rel 56+8 t=1 type."".Rocker+96
	rel 80+4 t=5 type..importpath."".+0
	rel 96+4 t=5 type..namedata.Puuuuu.+0
	rel 100+4 t=5 type.func() "".Rocker+0
runtime.memequal0·f SRODATA dupok size=8
	0x0000 00 00 00 00 00 00 00 00                          ........
	rel 0+8 t=1 runtime.memequal0+0
type..namedata.*main.Rock. SRODATA dupok size=12
	0x0000 01 0a 2a 6d 61 69 6e 2e 52 6f 63 6b              ..*main.Rock
type..namedata.*func(*main.Rock) main.Rocker- SRODATA dupok size=31
	0x0000 00 1d 2a 66 75 6e 63 28 2a 6d 61 69 6e 2e 52 6f  ..*func(*main.Ro
	0x0010 63 6b 29 20 6d 61 69 6e 2e 52 6f 63 6b 65 72     ck) main.Rocker
type.*func(*"".Rock) "".Rocker SRODATA dupok size=56
	0x0000 08 00 00 00 00 00 00 00 08 00 00 00 00 00 00 00  ................
	0x0010 b7 c4 ff be 08 08 08 36 00 00 00 00 00 00 00 00  .......6........
	0x0020 00 00 00 00 00 00 00 00 00 00 00 00 00 00 00 00  ................
	0x0030 00 00 00 00 00 00 00 00                          ........
	rel 24+8 t=1 runtime.memequal64·f+0
	rel 32+8 t=1 runtime.gcbits.01+0
	rel 40+4 t=5 type..namedata.*func(*main.Rock) main.Rocker-+0
	rel 48+8 t=1 type.func(*"".Rock) "".Rocker+0
type.func(*"".Rock) "".Rocker SRODATA dupok size=72
	0x0000 08 00 00 00 00 00 00 00 08 00 00 00 00 00 00 00  ................
	0x0010 22 a5 3b ef 02 08 08 33 00 00 00 00 00 00 00 00  ".;....3........
	0x0020 00 00 00 00 00 00 00 00 00 00 00 00 00 00 00 00  ................
	0x0030 01 00 01 00 00 00 00 00 00 00 00 00 00 00 00 00  ................
	0x0040 00 00 00 00 00 00 00 00                          ........
	rel 32+8 t=1 runtime.gcbits.01+0
	rel 40+4 t=5 type..namedata.*func(*main.Rock) main.Rocker-+0
	rel 44+4 t=-32763 type.*func(*"".Rock) "".Rocker+0
	rel 56+8 t=1 type.*"".Rock+0
	rel 64+8 t=1 type."".Rocker+0
type.*"".Rock SRODATA size=88
	0x0000 08 00 00 00 00 00 00 00 08 00 00 00 00 00 00 00  ................
	0x0010 22 b4 8a c8 09 08 08 36 00 00 00 00 00 00 00 00  "......6........
	0x0020 00 00 00 00 00 00 00 00 00 00 00 00 00 00 00 00  ................
	0x0030 00 00 00 00 00 00 00 00 00 00 00 00 01 00 01 00  ................
	0x0040 10 00 00 00 00 00 00 00 00 00 00 00 00 00 00 00  ................
	0x0050 00 00 00 00 00 00 00 00                          ........
	rel 24+8 t=1 runtime.memequal64·f+0
	rel 32+8 t=1 runtime.gcbits.01+0
	rel 40+4 t=5 type..namedata.*main.Rock.+0
	rel 48+8 t=1 type."".Rock+0
	rel 56+4 t=5 type..importpath."".+0
	rel 72+4 t=5 type..namedata.Puuuuu.+0
	rel 76+4 t=26 type.func() "".Rocker+0
	rel 80+4 t=26 "".(*Rock).Puuuuu+0
	rel 84+4 t=26 "".(*Rock).Puuuuu+0
runtime.gcbits. SRODATA dupok size=0
type..namedata.*func(main.Rock) main.Rocker- SRODATA dupok size=30
	0x0000 00 1c 2a 66 75 6e 63 28 6d 61 69 6e 2e 52 6f 63  ..*func(main.Roc
	0x0010 6b 29 20 6d 61 69 6e 2e 52 6f 63 6b 65 72        k) main.Rocker
type.*func("".Rock) "".Rocker SRODATA dupok size=56
	0x0000 08 00 00 00 00 00 00 00 08 00 00 00 00 00 00 00  ................
	0x0010 6a 2e bb 1b 08 08 08 36 00 00 00 00 00 00 00 00  j......6........
	0x0020 00 00 00 00 00 00 00 00 00 00 00 00 00 00 00 00  ................
	0x0030 00 00 00 00 00 00 00 00                          ........
	rel 24+8 t=1 runtime.memequal64·f+0
	rel 32+8 t=1 runtime.gcbits.01+0
	rel 40+4 t=5 type..namedata.*func(main.Rock) main.Rocker-+0
	rel 48+8 t=1 type.func("".Rock) "".Rocker+0
type.func("".Rock) "".Rocker SRODATA dupok size=72
	0x0000 08 00 00 00 00 00 00 00 08 00 00 00 00 00 00 00  ................
	0x0010 39 80 01 5e 02 08 08 33 00 00 00 00 00 00 00 00  9..^...3........
	0x0020 00 00 00 00 00 00 00 00 00 00 00 00 00 00 00 00  ................
	0x0030 01 00 01 00 00 00 00 00 00 00 00 00 00 00 00 00  ................
	0x0040 00 00 00 00 00 00 00 00                          ........
	rel 32+8 t=1 runtime.gcbits.01+0
	rel 40+4 t=5 type..namedata.*func(main.Rock) main.Rocker-+0
	rel 44+4 t=-32763 type.*func("".Rock) "".Rocker+0
	rel 56+8 t=1 type."".Rock+0
	rel 64+8 t=1 type."".Rocker+0
type."".Rock SRODATA size=112
	0x0000 00 00 00 00 00 00 00 00 00 00 00 00 00 00 00 00  ................
	0x0010 d6 68 78 dc 0f 01 01 19 00 00 00 00 00 00 00 00  .hx.............
	0x0020 00 00 00 00 00 00 00 00 00 00 00 00 00 00 00 00  ................
	0x0030 00 00 00 00 00 00 00 00 00 00 00 00 00 00 00 00  ................
	0x0040 00 00 00 00 00 00 00 00 00 00 00 00 00 00 00 00  ................
	0x0050 00 00 00 00 01 00 01 00 10 00 00 00 00 00 00 00  ................
	0x0060 00 00 00 00 00 00 00 00 00 00 00 00 00 00 00 00  ................
	rel 24+8 t=1 runtime.memequal0·f+0
	rel 32+8 t=1 runtime.gcbits.+0
	rel 40+4 t=5 type..namedata.*main.Rock.+0
	rel 44+4 t=5 type.*"".Rock+0
	rel 56+8 t=1 type."".Rock+96
	rel 80+4 t=5 type..importpath."".+0
	rel 96+4 t=5 type..namedata.Puuuuu.+0
	rel 100+4 t=26 type.func() "".Rocker+0
	rel 104+4 t=26 "".(*Rock).Puuuuu+0
	rel 108+4 t=26 "".Rock.Puuuuu+0
go.itab."".Rock,"".Rocker SRODATA dupok size=32
	0x0000 00 00 00 00 00 00 00 00 00 00 00 00 00 00 00 00  ................
	0x0010 d6 68 78 dc 00 00 00 00 00 00 00 00 00 00 00 00  .hx.............
	rel 0+8 t=1 type."".Rocker+0
	rel 8+8 t=1 type."".Rock+0
	rel 24+8 t=-32767 "".(*Rock).Puuuuu+0
type..namedata.*func() string- SRODATA dupok size=16
	0x0000 00 0e 2a 66 75 6e 63 28 29 20 73 74 72 69 6e 67  ..*func() string
type.*func() string SRODATA dupok size=56
	0x0000 08 00 00 00 00 00 00 00 08 00 00 00 00 00 00 00  ................
	0x0010 bc f4 77 69 08 08 08 36 00 00 00 00 00 00 00 00  ..wi...6........
	0x0020 00 00 00 00 00 00 00 00 00 00 00 00 00 00 00 00  ................
	0x0030 00 00 00 00 00 00 00 00                          ........
	rel 24+8 t=1 runtime.memequal64·f+0
	rel 32+8 t=1 runtime.gcbits.01+0
	rel 40+4 t=5 type..namedata.*func() string-+0
	rel 48+8 t=1 type.func() string+0
type.func() string SRODATA dupok size=64
	0x0000 08 00 00 00 00 00 00 00 08 00 00 00 00 00 00 00  ................
	0x0010 a2 6d cb 1e 02 08 08 33 00 00 00 00 00 00 00 00  .m.....3........
	0x0020 00 00 00 00 00 00 00 00 00 00 00 00 00 00 00 00  ................
	0x0030 00 00 01 00 00 00 00 00 00 00 00 00 00 00 00 00  ................
	rel 32+8 t=1 runtime.gcbits.01+0
	rel 40+4 t=5 type..namedata.*func() string-+0
	rel 44+4 t=-32763 type.*func() string+0
	rel 56+8 t=1 type.string+0
type..namedata.*main.Profer. SRODATA dupok size=14
	0x0000 01 0c 2a 6d 61 69 6e 2e 50 72 6f 66 65 72        ..*main.Profer
type.*"".Profer SRODATA size=56
	0x0000 08 00 00 00 00 00 00 00 08 00 00 00 00 00 00 00  ................
	0x0010 90 b3 ea d5 08 08 08 36 00 00 00 00 00 00 00 00  .......6........
	0x0020 00 00 00 00 00 00 00 00 00 00 00 00 00 00 00 00  ................
	0x0030 00 00 00 00 00 00 00 00                          ........
	rel 24+8 t=1 runtime.memequal64·f+0
	rel 32+8 t=1 runtime.gcbits.01+0
	rel 40+4 t=5 type..namedata.*main.Profer.+0
	rel 48+8 t=1 type."".Profer+0
type..namedata.Poler. SRODATA dupok size=7
	0x0000 01 05 50 6f 6c 65 72                             ..Poler
type."".Profer SRODATA size=104
	0x0000 10 00 00 00 00 00 00 00 10 00 00 00 00 00 00 00  ................
	0x0010 4f a0 ae 67 07 08 08 14 00 00 00 00 00 00 00 00  O..g............
	0x0020 00 00 00 00 00 00 00 00 00 00 00 00 00 00 00 00  ................
	0x0030 00 00 00 00 00 00 00 00 00 00 00 00 00 00 00 00  ................
	0x0040 01 00 00 00 00 00 00 00 01 00 00 00 00 00 00 00  ................
	0x0050 00 00 00 00 00 00 00 00 18 00 00 00 00 00 00 00  ................
	0x0060 00 00 00 00 00 00 00 00                          ........
	rel 24+8 t=1 runtime.interequal·f+0
	rel 32+8 t=1 runtime.gcbits.02+0
	rel 40+4 t=5 type..namedata.*main.Profer.+0
	rel 44+4 t=5 type.*"".Profer+0
	rel 48+8 t=1 type..importpath."".+0
	rel 56+8 t=1 type."".Profer+96
	rel 80+4 t=5 type..importpath."".+0
	rel 96+4 t=5 type..namedata.Poler.+0
	rel 100+4 t=5 type.func() string+0
runtime.strequal·f SRODATA dupok size=8
	0x0000 00 00 00 00 00 00 00 00                          ........
	rel 0+8 t=1 runtime.strequal+0
type..namedata.*main.Profe. SRODATA dupok size=13
	0x0000 01 0b 2a 6d 61 69 6e 2e 50 72 6f 66 65           ..*main.Profe
type..namedata.*func(*main.Profe) string- SRODATA dupok size=27
	0x0000 00 19 2a 66 75 6e 63 28 2a 6d 61 69 6e 2e 50 72  ..*func(*main.Pr
	0x0010 6f 66 65 29 20 73 74 72 69 6e 67                 ofe) string
type.*func(*"".Profe) string SRODATA dupok size=56
	0x0000 08 00 00 00 00 00 00 00 08 00 00 00 00 00 00 00  ................
	0x0010 40 bf d5 1d 08 08 08 36 00 00 00 00 00 00 00 00  @......6........
	0x0020 00 00 00 00 00 00 00 00 00 00 00 00 00 00 00 00  ................
	0x0030 00 00 00 00 00 00 00 00                          ........
	rel 24+8 t=1 runtime.memequal64·f+0
	rel 32+8 t=1 runtime.gcbits.01+0
	rel 40+4 t=5 type..namedata.*func(*main.Profe) string-+0
	rel 48+8 t=1 type.func(*"".Profe) string+0
type.func(*"".Profe) string SRODATA dupok size=72
	0x0000 08 00 00 00 00 00 00 00 08 00 00 00 00 00 00 00  ................
	0x0010 15 4d a1 69 02 08 08 33 00 00 00 00 00 00 00 00  .M.i...3........
	0x0020 00 00 00 00 00 00 00 00 00 00 00 00 00 00 00 00  ................
	0x0030 01 00 01 00 00 00 00 00 00 00 00 00 00 00 00 00  ................
	0x0040 00 00 00 00 00 00 00 00                          ........
	rel 32+8 t=1 runtime.gcbits.01+0
	rel 40+4 t=5 type..namedata.*func(*main.Profe) string-+0
	rel 44+4 t=-32763 type.*func(*"".Profe) string+0
	rel 56+8 t=1 type.*"".Profe+0
	rel 64+8 t=1 type.string+0
type.*"".Profe SRODATA size=88
	0x0000 08 00 00 00 00 00 00 00 08 00 00 00 00 00 00 00  ................
	0x0010 38 2d a3 e2 09 08 08 36 00 00 00 00 00 00 00 00  8-.....6........
	0x0020 00 00 00 00 00 00 00 00 00 00 00 00 00 00 00 00  ................
	0x0030 00 00 00 00 00 00 00 00 00 00 00 00 01 00 01 00  ................
	0x0040 10 00 00 00 00 00 00 00 00 00 00 00 00 00 00 00  ................
	0x0050 00 00 00 00 00 00 00 00                          ........
	rel 24+8 t=1 runtime.memequal64·f+0
	rel 32+8 t=1 runtime.gcbits.01+0
	rel 40+4 t=5 type..namedata.*main.Profe.+0
	rel 48+8 t=1 type."".Profe+0
	rel 56+4 t=5 type..importpath."".+0
	rel 72+4 t=5 type..namedata.Poler.+0
	rel 76+4 t=26 type.func() string+0
	rel 80+4 t=26 "".(*Profe).Poler+0
	rel 84+4 t=26 "".(*Profe).Poler+0
type..namedata.*func(main.Profe) string- SRODATA dupok size=26
	0x0000 00 18 2a 66 75 6e 63 28 6d 61 69 6e 2e 50 72 6f  ..*func(main.Pro
	0x0010 66 65 29 20 73 74 72 69 6e 67                    fe) string
type.*func("".Profe) string SRODATA dupok size=56
	0x0000 08 00 00 00 00 00 00 00 08 00 00 00 00 00 00 00  ................
	0x0010 65 72 63 3b 08 08 08 36 00 00 00 00 00 00 00 00  erc;...6........
	0x0020 00 00 00 00 00 00 00 00 00 00 00 00 00 00 00 00  ................
	0x0030 00 00 00 00 00 00 00 00                          ........
	rel 24+8 t=1 runtime.memequal64·f+0
	rel 32+8 t=1 runtime.gcbits.01+0
	rel 40+4 t=5 type..namedata.*func(main.Profe) string-+0
	rel 48+8 t=1 type.func("".Profe) string+0
type.func("".Profe) string SRODATA dupok size=72
	0x0000 08 00 00 00 00 00 00 00 08 00 00 00 00 00 00 00  ................
	0x0010 92 8c 64 95 02 08 08 33 00 00 00 00 00 00 00 00  ..d....3........
	0x0020 00 00 00 00 00 00 00 00 00 00 00 00 00 00 00 00  ................
	0x0030 01 00 01 00 00 00 00 00 00 00 00 00 00 00 00 00  ................
	0x0040 00 00 00 00 00 00 00 00                          ........
	rel 32+8 t=1 runtime.gcbits.01+0
	rel 40+4 t=5 type..namedata.*func(main.Profe) string-+0
	rel 44+4 t=-32763 type.*func("".Profe) string+0
	rel 56+8 t=1 type."".Profe+0
	rel 64+8 t=1 type.string+0
type..namedata.Content. SRODATA dupok size=9
	0x0000 01 07 43 6f 6e 74 65 6e 74                       ..Content
type."".Profe SRODATA size=136
	0x0000 10 00 00 00 00 00 00 00 08 00 00 00 00 00 00 00  ................
	0x0010 48 20 93 6a 07 08 08 19 00 00 00 00 00 00 00 00  H .j............
	0x0020 00 00 00 00 00 00 00 00 00 00 00 00 00 00 00 00  ................
	0x0030 00 00 00 00 00 00 00 00 00 00 00 00 00 00 00 00  ................
	0x0040 01 00 00 00 00 00 00 00 01 00 00 00 00 00 00 00  ................
	0x0050 00 00 00 00 01 00 01 00 28 00 00 00 00 00 00 00  ........(.......
	0x0060 00 00 00 00 00 00 00 00 00 00 00 00 00 00 00 00  ................
	0x0070 00 00 00 00 00 00 00 00 00 00 00 00 00 00 00 00  ................
	0x0080 00 00 00 00 00 00 00 00                          ........
	rel 24+8 t=1 runtime.strequal·f+0
	rel 32+8 t=1 runtime.gcbits.01+0
	rel 40+4 t=5 type..namedata.*main.Profe.+0
	rel 44+4 t=5 type.*"".Profe+0
	rel 56+8 t=1 type."".Profe+96
	rel 80+4 t=5 type..importpath."".+0
	rel 96+8 t=1 type..namedata.Content.+0
	rel 104+8 t=1 type.string+0
	rel 120+4 t=5 type..namedata.Poler.+0
	rel 124+4 t=26 type.func() string+0
	rel 128+4 t=26 "".(*Profe).Poler+0
	rel 132+4 t=26 "".Profe.Poler+0
go.itab."".Profe,"".Profer SRODATA dupok size=32
	0x0000 00 00 00 00 00 00 00 00 00 00 00 00 00 00 00 00  ................
	0x0010 48 20 93 6a 00 00 00 00 00 00 00 00 00 00 00 00  H .j............
	rel 0+8 t=1 type."".Profer+0
	rel 8+8 t=1 type."".Profe+0
	rel 24+8 t=-32767 "".(*Profe).Poler+0
""..dict.Pp[main.Rock,main.Profe] SRODATA dupok size=56
	0x0000 00 00 00 00 00 00 00 00 00 00 00 00 00 00 00 00  ................
	0x0010 00 00 00 00 00 00 00 00 00 00 00 00 00 00 00 00  ................
	0x0020 00 00 00 00 00 00 00 00 00 00 00 00 00 00 00 00  ................
	0x0030 00 00 00 00 00 00 00 00                          ........
	rel 0+8 t=1 type."".Rock+0
	rel 0+0 t=24 type."".Rock+0
	rel 0+0 t=25 type."".Profer+96
	rel 0+0 t=24 type."".Profe+0
	rel 0+0 t=24 type.[]"".Rock+0
	rel 0+0 t=25 type."".Rocker+96
	rel 8+8 t=1 type."".Profe+0
	rel 16+8 t=1 type.[]"".Rock+0
	rel 40+8 t=1 go.itab."".Rock,"".Rocker+0
	rel 48+8 t=1 go.itab."".Profe,"".Profer+0
go.cuinfo.packagename. SDWARFCUINFO dupok size=0
	0x0000 6d 61 69 6e                                      main
""..inittask SNOPTRDATA size=32
	0x0000 00 00 00 00 00 00 00 00 01 00 00 00 00 00 00 00  ................
	0x0010 00 00 00 00 00 00 00 00 00 00 00 00 00 00 00 00  ................
	rel 24+8 t=1 fmt..inittask+0
go.info.fmt.Println$abstract SDWARFABSFCN dupok size=42
	0x0000 04 66 6d 74 2e 50 72 69 6e 74 6c 6e 00 01 01 11  .fmt.Println....
	0x0010 61 00 00 00 00 00 00 11 6e 00 01 00 00 00 00 11  a.......n.......
	0x0020 65 72 72 00 01 00 00 00 00 00                    err.......
	rel 0+0 t=23 type.[]interface {}+0
	rel 0+0 t=23 type.error+0
	rel 0+0 t=23 type.int+0
	rel 19+4 t=31 go.info.[]interface {}+0
	rel 27+4 t=31 go.info.int+0
	rel 37+4 t=31 go.info.error+0
go.info."".Rock.Puuuuu$abstract SDWARFABSFCN dupok size=25
	0x0000 04 2e 52 6f 63 6b 2e 50 75 75 75 75 75 00 01 01  ..Rock.Puuuuu...
	0x0010 11 68 00 00 00 00 00 00 00                       .h.......
	rel 0+0 t=23 type."".Rock+0
	rel 0+0 t=23 type."".Rocker+0
	rel 20+4 t=31 go.info."".Rock+0
go.info."".Profe.Poler$abstract SDWARFABSFCN dupok size=25
	0x0000 04 2e 50 72 6f 66 65 2e 50 6f 6c 65 72 00 01 01  ..Profe.Poler...
	0x0010 11 68 00 00 00 00 00 00 00                       .h.......
	rel 0+0 t=23 type."".Profe+0
	rel 0+0 t=23 type.string+0
	rel 20+4 t=31 go.info."".Profe+0
go.string."123321" SRODATA dupok size=6
	0x0000 31 32 33 33 32 31                                123321
go.string."pooo~" SRODATA dupok size=5
	0x0000 70 6f 6f 6f 7e                                   pooo~
go.itab.*os.File,io.Writer SRODATA dupok size=32
	0x0000 00 00 00 00 00 00 00 00 00 00 00 00 00 00 00 00  ................
	0x0010 44 b5 f3 33 00 00 00 00 00 00 00 00 00 00 00 00  D..3............
	rel 0+8 t=1 type.io.Writer+0
	rel 8+8 t=1 type.*os.File+0
	rel 24+8 t=-32767 os.(*File).Write+0
go.string."asddas" SRODATA dupok size=6
	0x0000 61 73 64 64 61 73                                asddas
go.string."poler" SRODATA dupok size=5
	0x0000 70 6f 6c 65 72                                   poler
""..stmp_0 SRODATA static size=16
	0x0000 00 00 00 00 00 00 00 00 05 00 00 00 00 00 00 00  ................
	rel 0+8 t=1 go.string."pooo~"+0
""..stmp_1 SRODATA static size=16
	0x0000 00 00 00 00 00 00 00 00 06 00 00 00 00 00 00 00  ................
	rel 0+8 t=1 go.string."asddas"+0
""..stmp_2 SRODATA static size=16
	0x0000 00 00 00 00 00 00 00 00 05 00 00 00 00 00 00 00  ................
	rel 0+8 t=1 go.string."poler"+0
""..stmp_3 SRODATA static size=16
	0x0000 00 00 00 00 00 00 00 00 05 00 00 00 00 00 00 00  ................
	rel 0+8 t=1 go.string."pooo~"+0
runtime.nilinterequal·f SRODATA dupok size=8
	0x0000 00 00 00 00 00 00 00 00                          ........
	rel 0+8 t=1 runtime.nilinterequal+0
type..namedata.*main.wux- SRODATA dupok size=11
	0x0000 00 09 2a 6d 61 69 6e 2e 77 75 78                 ..*main.wux
type.*"".wux SRODATA size=56
	0x0000 08 00 00 00 00 00 00 00 08 00 00 00 00 00 00 00  ................
	0x0010 89 49 73 ee 08 08 08 36 00 00 00 00 00 00 00 00  .Is....6........
	0x0020 00 00 00 00 00 00 00 00 00 00 00 00 00 00 00 00  ................
	0x0030 00 00 00 00 00 00 00 00                          ........
	rel 24+8 t=1 runtime.memequal64·f+0
	rel 32+8 t=1 runtime.gcbits.01+0
	rel 40+4 t=5 type..namedata.*main.wux-+0
	rel 48+8 t=1 type."".wux+0
type."".wux SRODATA size=96
	0x0000 10 00 00 00 00 00 00 00 10 00 00 00 00 00 00 00  ................
	0x0010 ea cf 4e e2 07 08 08 14 00 00 00 00 00 00 00 00  ..N.............
	0x0020 00 00 00 00 00 00 00 00 00 00 00 00 00 00 00 00  ................
	0x0030 00 00 00 00 00 00 00 00 00 00 00 00 00 00 00 00  ................
	0x0040 00 00 00 00 00 00 00 00 00 00 00 00 00 00 00 00  ................
	0x0050 00 00 00 00 00 00 00 00 10 00 00 00 00 00 00 00  ................
	rel 24+8 t=1 runtime.nilinterequal·f+0
	rel 32+8 t=1 runtime.gcbits.02+0
	rel 40+4 t=5 type..namedata.*main.wux-+0
	rel 44+4 t=5 type.*"".wux+0
	rel 48+8 t=1 type..importpath."".+0
	rel 56+8 t=1 type."".wux+96
	rel 80+4 t=5 type..importpath."".+0
type..namedata.*[]main.Rock- SRODATA dupok size=14
	0x0000 00 0c 2a 5b 5d 6d 61 69 6e 2e 52 6f 63 6b        ..*[]main.Rock
type.*[]"".Rock SRODATA dupok size=56
	0x0000 08 00 00 00 00 00 00 00 08 00 00 00 00 00 00 00  ................
	0x0010 f9 0a f6 83 08 08 08 36 00 00 00 00 00 00 00 00  .......6........
	0x0020 00 00 00 00 00 00 00 00 00 00 00 00 00 00 00 00  ................
	0x0030 00 00 00 00 00 00 00 00                          ........
	rel 24+8 t=1 runtime.memequal64·f+0
	rel 32+8 t=1 runtime.gcbits.01+0
	rel 40+4 t=5 type..namedata.*[]main.Rock-+0
	rel 48+8 t=1 type.[]"".Rock+0
type.[]"".Rock SRODATA dupok size=56
	0x0000 18 00 00 00 00 00 00 00 08 00 00 00 00 00 00 00  ................
	0x0010 4a 3a ce 22 02 08 08 17 00 00 00 00 00 00 00 00  J:."............
	0x0020 00 00 00 00 00 00 00 00 00 00 00 00 00 00 00 00  ................
	0x0030 00 00 00 00 00 00 00 00                          ........
	rel 32+8 t=1 runtime.gcbits.01+0
	rel 40+4 t=5 type..namedata.*[]main.Rock-+0
	rel 44+4 t=-32763 type.*[]"".Rock+0
	rel 48+8 t=1 type."".Rock+0
type..namedata.*interface {}- SRODATA dupok size=15
	0x0000 00 0d 2a 69 6e 74 65 72 66 61 63 65 20 7b 7d     ..*interface {}
type.*interface {} SRODATA dupok size=56
	0x0000 08 00 00 00 00 00 00 00 08 00 00 00 00 00 00 00  ................
	0x0010 4f 0f 96 9d 08 08 08 36 00 00 00 00 00 00 00 00  O......6........
	0x0020 00 00 00 00 00 00 00 00 00 00 00 00 00 00 00 00  ................
	0x0030 00 00 00 00 00 00 00 00                          ........
	rel 24+8 t=1 runtime.memequal64·f+0
	rel 32+8 t=1 runtime.gcbits.01+0
	rel 40+4 t=5 type..namedata.*interface {}-+0
	rel 48+8 t=1 type.interface {}+0
type.interface {} SRODATA dupok size=80
	0x0000 10 00 00 00 00 00 00 00 10 00 00 00 00 00 00 00  ................
	0x0010 e7 57 a0 18 02 08 08 14 00 00 00 00 00 00 00 00  .W..............
	0x0020 00 00 00 00 00 00 00 00 00 00 00 00 00 00 00 00  ................
	0x0030 00 00 00 00 00 00 00 00 00 00 00 00 00 00 00 00  ................
	0x0040 00 00 00 00 00 00 00 00 00 00 00 00 00 00 00 00  ................
	rel 24+8 t=1 runtime.nilinterequal·f+0
	rel 32+8 t=1 runtime.gcbits.02+0
	rel 40+4 t=5 type..namedata.*interface {}-+0
	rel 44+4 t=-32763 type.*interface {}+0
	rel 56+8 t=1 type.interface {}+80
type..namedata.*[]interface {}- SRODATA dupok size=17
	0x0000 00 0f 2a 5b 5d 69 6e 74 65 72 66 61 63 65 20 7b  ..*[]interface {
	0x0010 7d                                               }
type.*[]interface {} SRODATA dupok size=56
	0x0000 08 00 00 00 00 00 00 00 08 00 00 00 00 00 00 00  ................
	0x0010 f3 04 9a e7 08 08 08 36 00 00 00 00 00 00 00 00  .......6........
	0x0020 00 00 00 00 00 00 00 00 00 00 00 00 00 00 00 00  ................
	0x0030 00 00 00 00 00 00 00 00                          ........
	rel 24+8 t=1 runtime.memequal64·f+0
	rel 32+8 t=1 runtime.gcbits.01+0
	rel 40+4 t=5 type..namedata.*[]interface {}-+0
	rel 48+8 t=1 type.[]interface {}+0
type.[]interface {} SRODATA dupok size=56
	0x0000 18 00 00 00 00 00 00 00 08 00 00 00 00 00 00 00  ................
	0x0010 70 93 ea 2f 02 08 08 17 00 00 00 00 00 00 00 00  p../............
	0x0020 00 00 00 00 00 00 00 00 00 00 00 00 00 00 00 00  ................
	0x0030 00 00 00 00 00 00 00 00                          ........
	rel 32+8 t=1 runtime.gcbits.01+0
	rel 40+4 t=5 type..namedata.*[]interface {}-+0
	rel 44+4 t=-32763 type.*[]interface {}+0
	rel 48+8 t=1 type.interface {}+0
runtime.gcbits.0a SRODATA dupok size=1
	0x0000 0a                                               .
type..importpath.fmt. SRODATA dupok size=5
	0x0000 00 03 66 6d 74                                   ..fmt
gclocals·33cdeccccebe80329f1fdbee7f5874cb SRODATA dupok size=8
	0x0000 01 00 00 00 00 00 00 00                          ........
gclocals·f207267fbf96a0178e8758c6e3e0ce28 SRODATA dupok size=9
	0x0000 01 00 00 00 02 00 00 00 00                       .........
"".Rock.Puuuuu.stkobj SRODATA static size=32
	0x0000 01 00 00 00 00 00 00 00 f0 ff ff ff 10 00 00 00  ................
	0x0010 10 00 00 00 00 00 00 00 00 00 00 00 00 00 00 00  ................
	rel 24+8 t=1 runtime.gcbits.02+0
"".Rock.Puuuuu.arginfo1 SRODATA static dupok size=3
	0x0000 fe fd ff                                         ...
gclocals·1a65e721a2ccc325b382662e7ffee780 SRODATA dupok size=10
	0x0000 02 00 00 00 01 00 00 00 01 00                    ..........
gclocals·69c1753bd5f81501d95132d08af04464 SRODATA dupok size=8
	0x0000 02 00 00 00 00 00 00 00                          ........
"".Profe.Poler.arginfo1 SRODATA static dupok size=9
	0x0000 fe fe 00 08 08 08 fd fd ff                       .........
gclocals·05039808e1b9416442f250d7e9d89936 SRODATA dupok size=12
	0x0000 04 00 00 00 05 00 00 00 12 00 00 02              ............
gclocals·b17f3c15d42abc325892a4740a916ddc SRODATA dupok size=16
	0x0000 04 00 00 00 0b 00 00 00 00 00 00 00 50 00 01 00  ............P...
"".Pp[.shape.struct {},.shape.struct { Content string }].stkobj SRODATA static size=80
	0x0000 03 00 00 00 00 00 00 00 b0 ff ff ff 10 00 00 00  ................
	0x0010 08 00 00 00 00 00 00 00 00 00 00 00 00 00 00 00  ................
	0x0020 c0 ff ff ff 20 00 00 00 20 00 00 00 00 00 00 00  .... ... .......
	0x0030 00 00 00 00 00 00 00 00 e0 ff ff ff 20 00 00 00  ............ ...
	0x0040 20 00 00 00 00 00 00 00 00 00 00 00 00 00 00 00   ...............
	rel 24+8 t=1 runtime.gcbits.01+0
	rel 48+8 t=1 runtime.gcbits.0a+0
	rel 72+8 t=1 runtime.gcbits.0a+0
"".Pp[.shape.struct {},.shape.struct { Content string }].arginfo1 SRODATA static dupok size=19
	0x0000 00 08 fe 08 08 10 08 18 08 fd fe fe 20 08 28 08  ............ .(.
	0x0010 fd fd ff                                         ...
gclocals·2589ca35330fc0fce83503f4569854a0 SRODATA dupok size=10
	0x0000 02 00 00 00 02 00 00 00 00 00                    ..........
"".(*Rock).Puuuuu.stkobj SRODATA static size=32
	0x0000 01 00 00 00 00 00 00 00 f0 ff ff ff 10 00 00 00  ................
	0x0010 10 00 00 00 00 00 00 00 00 00 00 00 00 00 00 00  ................
	rel 24+8 t=1 runtime.gcbits.02+0
"".(*Rock).Puuuuu.arginfo1 SRODATA static dupok size=3
	0x0000 00 08 ff                                         ...
gclocals·09cf9819fc716118c209c2d2155a3632 SRODATA dupok size=10
	0x0000 02 00 00 00 02 00 00 00 02 00                    ..........
"".Rocker.Puuuuu.arginfo1 SRODATA static dupok size=7
	0x0000 fe 00 08 08 08 fd ff                             .......
"".(*Profe).Poler.arginfo1 SRODATA static dupok size=3
	0x0000 00 08 ff                                         ...
"".Profer.Poler.arginfo1 SRODATA static dupok size=7
	0x0000 fe 00 08 08 08 fd ff                             .......
